target datalayout = "e-m:e-p270:32:32-p271:32:32-p272:64:64-i64:64-i128:128-f80:128-n8:16:32:64-S128"
target triple = "x86_64-pc-linux-gnu"

%"class.std::__cxx11::basic_string" = type { %"struct.std::__cxx11::basic_string<char>::_Alloc_hider", i64, %union.anon }
%"struct.std::__cxx11::basic_string<char>::_Alloc_hider" = type { ptr }
%union.anon = type { i64, [8 x i8] }
%"struct.std::__detail::_Hash_node_base" = type { ptr }
%"struct.std::__detail::_Prime_rehash_policy" = type { float, i64 }
%"class.duckdb::Value" = type { %"struct.duckdb::LogicalType", i8, %"union.duckdb::Value::Val", %"class.duckdb::shared_ptr.72" }
%"struct.duckdb::LogicalType" = type { i8, i8, %"class.duckdb::shared_ptr" }
%"class.duckdb::shared_ptr" = type { %"class.std::shared_ptr" }
%"class.std::shared_ptr" = type { %"class.std::__shared_ptr" }
%"class.std::__shared_ptr" = type { ptr, %"class.std::__shared_count" }
%"class.std::__shared_count" = type { ptr }
%"union.duckdb::Value::Val" = type { %"struct.duckdb::hugeint_t" }
%"struct.duckdb::hugeint_t" = type { i64, i64 }
%"class.duckdb::shared_ptr.72" = type { %"class.std::shared_ptr.73" }
%"class.std::shared_ptr.73" = type { %"class.std::__shared_ptr.74" }
%"class.std::__shared_ptr.74" = type { ptr, %"class.std::__shared_count" }
%"class.duckdb::unique_ptr.481" = type { %"class.std::unique_ptr.482" }
%"class.std::unique_ptr.482" = type { %"struct.std::__uniq_ptr_data.483" }
%"struct.std::__uniq_ptr_data.483" = type { %"class.std::__uniq_ptr_impl.484" }
%"class.std::__uniq_ptr_impl.484" = type { %"class.std::tuple.485" }
%"class.std::tuple.485" = type { %"struct.std::_Tuple_impl.486" }
%"struct.std::_Tuple_impl.486" = type { %"struct.std::_Head_base.489" }
%"struct.std::_Head_base.489" = type { ptr }
%"struct.duckdb::SecretEntry" = type { i8, %"class.std::__cxx11::basic_string", %"class.duckdb::unique_ptr.546" }
%"class.duckdb::unique_ptr.546" = type { %"class.std::unique_ptr.547" }
%"class.std::unique_ptr.547" = type { %"struct.std::__uniq_ptr_data.548" }
%"struct.std::__uniq_ptr_data.548" = type { %"class.std::__uniq_ptr_impl.549" }
%"class.std::__uniq_ptr_impl.549" = type { %"class.std::tuple.550" }
%"class.std::tuple.550" = type { %"struct.std::_Tuple_impl.551" }
%"struct.std::_Tuple_impl.551" = type { %"struct.std::_Head_base.554" }
%"struct.std::_Head_base.554" = type { ptr }
%"struct.duckdb::SecretCatalogEntry" = type { %"class.duckdb::InCatalogEntry", %"class.duckdb::unique_ptr.481" }
%"class.duckdb::InCatalogEntry" = type { %"class.duckdb::CatalogEntry", ptr }
%"class.duckdb::CatalogEntry" = type { ptr, i64, i8, %"class.duckdb::optional_ptr.521", %"class.std::__cxx11::basic_string", i8, i8, i8, %"struct.std::atomic.435", %"class.duckdb::Value", %"class.std::unordered_map.522", %"class.duckdb::unique_ptr.536", %"class.duckdb::optional_ptr.545" }
%"class.duckdb::optional_ptr.521" = type { ptr }
%"struct.std::atomic.435" = type { %"struct.std::__atomic_base.436" }
%"struct.std::__atomic_base.436" = type { i64 }
%"class.std::unordered_map.522" = type { %"class.std::_Hashtable.523" }
%"class.std::_Hashtable.523" = type { ptr, i64, %"struct.std::__detail::_Hash_node_base", i64, %"struct.std::__detail::_Prime_rehash_policy", ptr }
%"class.duckdb::unique_ptr.536" = type { %"class.std::unique_ptr.537" }
%"class.std::unique_ptr.537" = type { %"struct.std::__uniq_ptr_data.538" }
%"struct.std::__uniq_ptr_data.538" = type { %"class.std::__uniq_ptr_impl.539" }
%"class.std::__uniq_ptr_impl.539" = type { %"class.std::tuple.540" }
%"class.std::tuple.540" = type { %"struct.std::_Tuple_impl.541" }
%"struct.std::_Tuple_impl.541" = type { %"struct.std::_Head_base.544" }
%"struct.std::_Head_base.544" = type { ptr }
%"class.duckdb::optional_ptr.545" = type { ptr }
%"struct.std::_Vector_base.662" = type { %"struct.std::_Vector_base<duckdb::SecretEntry, std::allocator<duckdb::SecretEntry>>::_Vector_impl" }
%"struct.std::_Vector_base<duckdb::SecretEntry, std::allocator<duckdb::SecretEntry>>::_Vector_impl" = type { %"struct.std::_Vector_base<duckdb::SecretEntry, std::allocator<duckdb::SecretEntry>>::_Vector_impl_data" }
%"struct.std::_Vector_base<duckdb::SecretEntry, std::allocator<duckdb::SecretEntry>>::_Vector_impl_data" = type { ptr, ptr, ptr }
%"class.__gnu_cxx::__normal_iterator.666" = type { ptr }
%class.anon.739 = type { ptr }

; Function Attrs: mustprogress nounwind uwtable
define linkonce_odr void @_ZN9__gnu_cxx17__normal_iteratorIPN6duckdb11SecretEntryESt6vectorIS2_SaIS2_EEEC2ERKS3_(ptr noundef nonnull align 8 dereferenceable(8) %0, ptr noundef nonnull align 8 dereferenceable(8) %1) unnamed_addr #6 comdat align 2 {
  %3 = alloca ptr, align 8
  %4 = alloca ptr, align 8
  store ptr %0, ptr %3, align 8, !tbaa !459
  store ptr %1, ptr %4, align 8, !tbaa !233
  %5 = load ptr, ptr %3, align 8
  %6 = getelementptr inbounds nuw %"class.__gnu_cxx::__normal_iterator.666", ptr %5, i32 0, i32 0
  %7 = load ptr, ptr %4, align 8, !tbaa !233
  %8 = load ptr, ptr %7, align 8, !tbaa !228
  store ptr %8, ptr %6, align 8, !tbaa !461
  ret void
}

; Function Attrs: mustprogress uwtable
define linkonce_odr void @_ZNSt15__new_allocatorIN6duckdb11SecretEntryEE9constructIS1_JRKS1_EEEvPT_DpOT0_(ptr noundef nonnull align 1 dereferenceable(1) %0, ptr noundef %1, ptr noundef nonnull align 8 dereferenceable(48) %2) #4 comdat align 2 {
  %4 = alloca ptr, align 8
  %5 = alloca ptr, align 8
  %6 = alloca ptr, align 8
  store ptr %0, ptr %4, align 8, !tbaa !1270
  store ptr %1, ptr %5, align 8, !tbaa !228
  store ptr %2, ptr %6, align 8, !tbaa !228
  %7 = load ptr, ptr %5, align 8, !tbaa !228
  %8 = load ptr, ptr %6, align 8, !tbaa !228
  call void @_ZN6duckdb11SecretEntryC2ERKS0_(ptr noundef nonnull align 8 dereferenceable(48) %7, ptr noundef nonnull align 8 dereferenceable(48) %8)
  ret void
}

; Function Attrs: mustprogress nounwind uwtable
define linkonce_odr ptr @_ZNSt6vectorIN6duckdb11SecretEntryESaIS1_EE3endEv(ptr noundef nonnull align 8 dereferenceable(24) %0) #6 comdat align 2 {
  %2 = alloca %"class.__gnu_cxx::__normal_iterator.666", align 8
  %3 = alloca ptr, align 8
  store ptr %0, ptr %3, align 8, !tbaa !457
  %4 = load ptr, ptr %3, align 8
  %5 = getelementptr inbounds nuw %"struct.std::_Vector_base.662", ptr %4, i32 0, i32 0
  %6 = getelementptr inbounds nuw %"struct.std::_Vector_base<duckdb::SecretEntry, std::allocator<duckdb::SecretEntry>>::_Vector_impl_data", ptr %5, i32 0, i32 1
  call void @_ZN9__gnu_cxx17__normal_iteratorIPN6duckdb11SecretEntryESt6vectorIS2_SaIS2_EEEC2ERKS3_(ptr noundef nonnull align 8 dereferenceable(8) %2, ptr noundef nonnull align 8 dereferenceable(8) %6) #3
  %7 = getelementptr inbounds nuw %"class.__gnu_cxx::__normal_iterator.666", ptr %2, i32 0, i32 0
  %8 = load ptr, ptr %7, align 8
  ret ptr %8
}

; Function Attrs: mustprogress uwtable
define linkonce_odr void @_ZNSt16allocator_traitsISaIN6duckdb11SecretEntryEEE9constructIS1_JRKS1_EEEvRS2_PT_DpOT0_(ptr noundef nonnull align 1 dereferenceable(1) %0, ptr noundef %1, ptr noundef nonnull align 8 dereferenceable(48) %2) #4 comdat align 2 {
  %4 = alloca ptr, align 8
  %5 = alloca ptr, align 8
  %6 = alloca ptr, align 8
  store ptr %0, ptr %4, align 8, !tbaa !1266
  store ptr %1, ptr %5, align 8, !tbaa !228
  store ptr %2, ptr %6, align 8, !tbaa !228
  %7 = load ptr, ptr %4, align 8, !tbaa !1266
  %8 = load ptr, ptr %5, align 8, !tbaa !228
  %9 = load ptr, ptr %6, align 8, !tbaa !228
  call void @_ZNSt15__new_allocatorIN6duckdb11SecretEntryEE9constructIS1_JRKS1_EEEvPT_DpOT0_(ptr noundef nonnull align 1 dereferenceable(1) %7, ptr noundef %8, ptr noundef nonnull align 8 dereferenceable(48) %9)
  ret void
}

; Function Attrs: mustprogress nounwind uwtable
define linkonce_odr void @_ZN6duckdb16DynamicCastCheckINS_18SecretCatalogEntryENS_12CatalogEntryEEEvPKT0_(ptr noundef %0) #6 comdat {
  %2 = alloca ptr, align 8
  store ptr %0, ptr %2, align 8, !tbaa !797
  ret void
}

; Function Attrs: mustprogress uwtable
define linkonce_odr void @_ZNSt6vectorIN6duckdb11SecretEntryESaIS1_EE9push_backERKS1_(ptr noundef nonnull align 8 dereferenceable(24) %0, ptr noundef nonnull align 8 dereferenceable(48) %1) #4 comdat align 2 {
  %3 = alloca ptr, align 8
  %4 = alloca ptr, align 8
  %5 = alloca %"class.__gnu_cxx::__normal_iterator.666", align 8
  store ptr %0, ptr %3, align 8, !tbaa !457
  store ptr %1, ptr %4, align 8, !tbaa !228
  %6 = load ptr, ptr %3, align 8
  %7 = getelementptr inbounds nuw %"struct.std::_Vector_base.662", ptr %6, i32 0, i32 0
  %8 = getelementptr inbounds nuw %"struct.std::_Vector_base<duckdb::SecretEntry, std::allocator<duckdb::SecretEntry>>::_Vector_impl_data", ptr %7, i32 0, i32 1
  %9 = load ptr, ptr %8, align 8, !tbaa !463
  %10 = getelementptr inbounds nuw %"struct.std::_Vector_base.662", ptr %6, i32 0, i32 0
  %11 = getelementptr inbounds nuw %"struct.std::_Vector_base<duckdb::SecretEntry, std::allocator<duckdb::SecretEntry>>::_Vector_impl_data", ptr %10, i32 0, i32 2
  %12 = load ptr, ptr %11, align 8, !tbaa !465
  %13 = icmp ne ptr %9, %12
  br i1 %13, label %14, label %24

14:                                               ; preds = %2
  %15 = getelementptr inbounds nuw %"struct.std::_Vector_base.662", ptr %6, i32 0, i32 0
  %16 = getelementptr inbounds nuw %"struct.std::_Vector_base.662", ptr %6, i32 0, i32 0
  %17 = getelementptr inbounds nuw %"struct.std::_Vector_base<duckdb::SecretEntry, std::allocator<duckdb::SecretEntry>>::_Vector_impl_data", ptr %16, i32 0, i32 1
  %18 = load ptr, ptr %17, align 8, !tbaa !463
  %19 = load ptr, ptr %4, align 8, !tbaa !228
  call void @_ZNSt16allocator_traitsISaIN6duckdb11SecretEntryEEE9constructIS1_JRKS1_EEEvRS2_PT_DpOT0_(ptr noundef nonnull align 1 dereferenceable(1) %15, ptr noundef %18, ptr noundef nonnull align 8 dereferenceable(48) %19)
  %20 = getelementptr inbounds nuw %"struct.std::_Vector_base.662", ptr %6, i32 0, i32 0
  %21 = getelementptr inbounds nuw %"struct.std::_Vector_base<duckdb::SecretEntry, std::allocator<duckdb::SecretEntry>>::_Vector_impl_data", ptr %20, i32 0, i32 1
  %22 = load ptr, ptr %21, align 8, !tbaa !463
  %23 = getelementptr inbounds nuw %"struct.duckdb::SecretEntry", ptr %22, i32 1
  store ptr %23, ptr %21, align 8, !tbaa !463
  br label %30

24:                                               ; preds = %2
  %25 = call ptr @_ZNSt6vectorIN6duckdb11SecretEntryESaIS1_EE3endEv(ptr noundef nonnull align 8 dereferenceable(24) %6) #3
  %26 = getelementptr inbounds nuw %"class.__gnu_cxx::__normal_iterator.666", ptr %5, i32 0, i32 0
  store ptr %25, ptr %26, align 8
  %27 = load ptr, ptr %4, align 8, !tbaa !228
  %28 = getelementptr inbounds nuw %"class.__gnu_cxx::__normal_iterator.666", ptr %5, i32 0, i32 0
  %29 = load ptr, ptr %28, align 8
  call void @_ZNSt6vectorIN6duckdb11SecretEntryESaIS1_EE17_M_realloc_insertIJRKS1_EEEvN9__gnu_cxx17__normal_iteratorIPS1_S3_EEDpOT_(ptr noundef nonnull align 8 dereferenceable(24) %6, ptr %29, ptr noundef nonnull align 8 dereferenceable(48) %27)
  br label %30

30:                                               ; preds = %24, %14
  ret void
}

; Function Attrs: mustprogress uwtable
define linkonce_odr noundef nonnull align 8 dereferenceable(232) ptr @_ZN6duckdb12CatalogEntry4CastINS_18SecretCatalogEntryEEERT_v(ptr noundef nonnull align 8 dereferenceable(216) %0) #4 comdat align 2 {
  %2 = alloca ptr, align 8
  store ptr %0, ptr %2, align 8, !tbaa !797
  %3 = load ptr, ptr %2, align 8
  call void @_ZN6duckdb16DynamicCastCheckINS_18SecretCatalogEntryENS_12CatalogEntryEEEvPKT0_(ptr noundef %3)
  ret ptr %3
}

; Function Attrs: inlinehint mustprogress uwtable
define internal void @"_ZZN6duckdb23CatalogSetSecretStorage10AllSecretsENS_12optional_ptrINS_18CatalogTransactionELb1EEEENK3$_0clERNS_12CatalogEntryE"(ptr noundef nonnull align 8 dereferenceable(8) %0, ptr noundef nonnull align 8 dereferenceable(216) %1) #8 align 2 {
  %3 = alloca ptr, align 8
  %4 = alloca ptr, align 8
  %5 = alloca ptr, align 8
  store ptr %0, ptr %3, align 8, !tbaa !800
  store ptr %1, ptr %4, align 8, !tbaa !797
  %6 = load ptr, ptr %3, align 8
  call void @llvm.lifetime.start.p0(i64 8, ptr %5) #3
  %7 = load ptr, ptr %4, align 8, !tbaa !797
  %8 = call noundef nonnull align 8 dereferenceable(232) ptr @_ZN6duckdb12CatalogEntry4CastINS_18SecretCatalogEntryEEERT_v(ptr noundef nonnull align 8 dereferenceable(216) %7)
  store ptr %8, ptr %5, align 8, !tbaa !192
  %9 = getelementptr inbounds nuw %class.anon.739, ptr %6, i32 0, i32 0
  %10 = load ptr, ptr %9, align 8, !tbaa !2355
  %11 = load ptr, ptr %5, align 8, !tbaa !192
  %12 = getelementptr inbounds nuw %"struct.duckdb::SecretCatalogEntry", ptr %11, i32 0, i32 1
  %13 = call noundef nonnull align 8 dereferenceable(48) ptr @_ZNK6duckdb10unique_ptrINS_11SecretEntryESt14default_deleteIS1_ELb1EEdeEv(ptr noundef nonnull align 8 dereferenceable(8) %12)
  call void @_ZNSt6vectorIN6duckdb11SecretEntryESaIS1_EE9push_backERKS1_(ptr noundef nonnull align 8 dereferenceable(24) %10, ptr noundef nonnull align 8 dereferenceable(48) %13)
  call void @llvm.lifetime.end.p0(i64 8, ptr %5) #3
  ret void
}

; Function Attrs: mustprogress nounwind uwtable
define linkonce_odr noundef ptr @_ZNKSt9_Any_data9_M_accessEv(ptr noundef nonnull align 8 dereferenceable(16) %0) #6 comdat align 2 {
  %2 = alloca ptr, align 8
  store ptr %0, ptr %2, align 8, !tbaa !2350
  %3 = load ptr, ptr %2, align 8
  %4 = getelementptr inbounds [16 x i8], ptr %3, i64 0, i64 0
  ret ptr %4
}

; Function Attrs: mustprogress uwtable
define internal void @"_ZSt13__invoke_implIvRZN6duckdb23CatalogSetSecretStorage10AllSecretsENS0_12optional_ptrINS0_18CatalogTransactionELb1EEEE3$_0JRNS0_12CatalogEntryEEET_St14__invoke_otherOT0_DpOT1_"(ptr noundef nonnull align 8 dereferenceable(8) %0, ptr noundef nonnull align 8 dereferenceable(216) %1) #4 {
  %3 = alloca ptr, align 8
  %4 = alloca ptr, align 8
  store ptr %0, ptr %3, align 8, !tbaa !800
  store ptr %1, ptr %4, align 8, !tbaa !797
  %5 = load ptr, ptr %3, align 8, !tbaa !800
  %6 = load ptr, ptr %4, align 8, !tbaa !797
  call void @"_ZZN6duckdb23CatalogSetSecretStorage10AllSecretsENS_12optional_ptrINS_18CatalogTransactionELb1EEEENK3$_0clERNS_12CatalogEntryE"(ptr noundef nonnull align 8 dereferenceable(8) %5, ptr noundef nonnull align 8 dereferenceable(216) %6)
  ret void
}

; Function Attrs: mustprogress nounwind uwtable
define internal noundef nonnull align 8 dereferenceable(8) ptr @"_ZNKSt9_Any_data9_M_accessIZN6duckdb23CatalogSetSecretStorage10AllSecretsENS1_12optional_ptrINS1_18CatalogTransactionELb1EEEE3$_0EERKT_v"(ptr noundef nonnull align 8 dereferenceable(16) %0) #6 align 2 {
  %2 = alloca ptr, align 8
  store ptr %0, ptr %2, align 8, !tbaa !2350
  %3 = load ptr, ptr %2, align 8
  %4 = call noundef ptr @_ZNKSt9_Any_data9_M_accessEv(ptr noundef nonnull align 8 dereferenceable(16) %3) #3
  ret ptr %4
}

; Function Attrs: mustprogress uwtable
define internal void @"_ZSt10__invoke_rIvRZN6duckdb23CatalogSetSecretStorage10AllSecretsENS0_12optional_ptrINS0_18CatalogTransactionELb1EEEE3$_0JRNS0_12CatalogEntryEEENSt9enable_ifIXsr6__and_ISt7is_voidIT_ESt14__is_invocableIT0_JDpT1_EEEE5valueESB_E4typeEOSE_DpOSF_"(ptr noundef nonnull align 8 dereferenceable(8) %0, ptr noundef nonnull align 8 dereferenceable(216) %1) #4 {
  %3 = alloca ptr, align 8
  %4 = alloca ptr, align 8
  store ptr %0, ptr %3, align 8, !tbaa !800
  store ptr %1, ptr %4, align 8, !tbaa !797
  %5 = load ptr, ptr %3, align 8, !tbaa !800
  %6 = load ptr, ptr %4, align 8, !tbaa !797
  call void @"_ZSt13__invoke_implIvRZN6duckdb23CatalogSetSecretStorage10AllSecretsENS0_12optional_ptrINS0_18CatalogTransactionELb1EEEE3$_0JRNS0_12CatalogEntryEEET_St14__invoke_otherOT0_DpOT1_"(ptr noundef nonnull align 8 dereferenceable(8) %5, ptr noundef nonnull align 8 dereferenceable(216) %6)
  ret void
}

; Function Attrs: mustprogress nounwind uwtable
define internal noundef ptr @"_ZNSt14_Function_base13_Base_managerIZN6duckdb23CatalogSetSecretStorage10AllSecretsENS1_12optional_ptrINS1_18CatalogTransactionELb1EEEE3$_0E14_M_get_pointerERKSt9_Any_data"(ptr noundef nonnull align 8 dereferenceable(16) %0) #6 align 2 {
  %2 = alloca ptr, align 8
  %3 = alloca ptr, align 8
  store ptr %0, ptr %2, align 8, !tbaa !2350
  call void @llvm.lifetime.start.p0(i64 8, ptr %3) #3
  %4 = load ptr, ptr %2, align 8, !tbaa !2350
  %5 = call noundef nonnull align 8 dereferenceable(8) ptr @"_ZNKSt9_Any_data9_M_accessIZN6duckdb23CatalogSetSecretStorage10AllSecretsENS1_12optional_ptrINS1_18CatalogTransactionELb1EEEE3$_0EERKT_v"(ptr noundef nonnull align 8 dereferenceable(16) %4) #3
  store ptr %5, ptr %3, align 8, !tbaa !800
  %6 = load ptr, ptr %3, align 8, !tbaa !800
  call void @llvm.lifetime.end.p0(i64 8, ptr %3) #3
  ret ptr %6
}

; Function Attrs: mustprogress uwtable
define internal void @"_ZNSt17_Function_handlerIFvRN6duckdb12CatalogEntryEEZNS0_23CatalogSetSecretStorage10AllSecretsENS0_12optional_ptrINS0_18CatalogTransactionELb1EEEE3$_0E9_M_invokeERKSt9_Any_dataS2_"(ptr noundef nonnull align 8 dereferenceable(16) %0, ptr noundef nonnull align 8 dereferenceable(216) %1) #4 align 2 {
  %3 = alloca ptr, align 8
  %4 = alloca ptr, align 8
  store ptr %0, ptr %3, align 8, !tbaa !2350
  store ptr %1, ptr %4, align 8, !tbaa !797
  %5 = load ptr, ptr %3, align 8, !tbaa !2350
  %6 = call noundef ptr @"_ZNSt14_Function_base13_Base_managerIZN6duckdb23CatalogSetSecretStorage10AllSecretsENS1_12optional_ptrINS1_18CatalogTransactionELb1EEEE3$_0E14_M_get_pointerERKSt9_Any_data"(ptr noundef nonnull align 8 dereferenceable(16) %5) #3
  %7 = load ptr, ptr %4, align 8, !tbaa !797
  call void @"_ZSt10__invoke_rIvRZN6duckdb23CatalogSetSecretStorage10AllSecretsENS0_12optional_ptrINS0_18CatalogTransactionELb1EEEE3$_0JRNS0_12CatalogEntryEEENSt9enable_ifIXsr6__and_ISt7is_voidIT_ESt14__is_invocableIT0_JDpT1_EEEE5valueESB_E4typeEOSE_DpOSF_"(ptr noundef nonnull align 8 dereferenceable(8) %6, ptr noundef nonnull align 8 dereferenceable(216) %7)
  ret void
}