; Function Attrs: mustprogress uwtable
define internal void @"_ZNSt17_Function_handlerIFvRN6duckdb12CatalogEntryEEZNS0_23CatalogSetSecretStorage10AllSecretsENS0_12optional_ptrINS0_18CatalogTransactionELb1EEEE3$_0E9_M_invokeERKSt9_Any_dataS2_"(ptr noundef nonnull readonly align 8 captures(none) dereferenceable(16) %0, ptr noundef nonnull align 8 dereferenceable(216) %1) #3 align 2 {
  %.val = load ptr, ptr %0, align 8, !tbaa !1156
  %3 = getelementptr inbounds nuw i8, ptr %1, i64 224
  %4 = tail call noundef nonnull align 8 dereferenceable(48) ptr @_ZNK6duckdb10unique_ptrINS_11SecretEntryESt14default_deleteIS1_ELb1EEdeEv(ptr noundef nonnull align 8 dereferenceable(8) %3)
  %5 = getelementptr inbounds nuw i8, ptr %.val, i64 8
  %6 = load ptr, ptr %5, align 8, !tbaa !640
  %7 = getelementptr inbounds nuw i8, ptr %.val, i64 16
  %8 = load ptr, ptr %7, align 8, !tbaa !642
  %.not.i.i.i.i = icmp eq ptr %6, %8
  br i1 %.not.i.i.i.i, label %12, label %9

9:                                                ; preds = %2
  tail call void @_ZN6duckdb11SecretEntryC2ERKS0_(ptr noundef nonnull align 8 dereferenceable(48) %6, ptr noundef nonnull align 8 dereferenceable(48) %4)
  %10 = load ptr, ptr %5, align 8, !tbaa !640
  %11 = getelementptr inbounds nuw i8, ptr %10, i64 48
  store ptr %11, ptr %5, align 8, !tbaa !640
  br label %"_ZSt10__invoke_rIvRZN6duckdb23CatalogSetSecretStorage10AllSecretsENS0_12optional_ptrINS0_18CatalogTransactionELb1EEEE3$_0JRNS0_12CatalogEntryEEENSt9enable_ifIXsr6__and_ISt7is_voidIT_ESt14__is_invocableIT0_JDpT1_EEEE5valueESB_E4typeEOSE_DpOSF_.exit"

12:                                               ; preds = %2
  tail call void @_ZNSt6vectorIN6duckdb11SecretEntryESaIS1_EE17_M_realloc_insertIJRKS1_EEEvN9__gnu_cxx17__normal_iteratorIPS1_S3_EEDpOT_(ptr noundef nonnull align 8 dereferenceable(24) %.val, ptr %6, ptr noundef nonnull align 8 dereferenceable(48) %4)
  br label %"_ZSt10__invoke_rIvRZN6duckdb23CatalogSetSecretStorage10AllSecretsENS0_12optional_ptrINS0_18CatalogTransactionELb1EEEE3$_0JRNS0_12CatalogEntryEEENSt9enable_ifIXsr6__and_ISt7is_voidIT_ESt14__is_invocableIT0_JDpT1_EEEE5valueESB_E4typeEOSE_DpOSF_.exit"

"_ZSt10__invoke_rIvRZN6duckdb23CatalogSetSecretStorage10AllSecretsENS0_12optional_ptrINS0_18CatalogTransactionELb1EEEE3$_0JRNS0_12CatalogEntryEEENSt9enable_ifIXsr6__and_ISt7is_voidIT_ESt14__is_invocableIT0_JDpT1_EEEE5valueESB_E4typeEOSE_DpOSF_.exit": ; preds = %9, %12
  ret void
}